target datalayout = "e-m:e-p270:32:32-p271:32:32-p272:64:64-i64:64-i128:128-f80:128-n8:16:32:64-S128"
target triple = "x86_64-pc-linux-gnu"

%struct.index_state = type { ptr, i32, i32, i32, i32, ptr, ptr, ptr, %struct.cache_time, i8, i32, %struct.hashmap, %struct.hashmap, %struct.object_id, ptr, ptr, ptr, ptr, ptr, ptr, ptr }
%struct.cache_time = type { i32, i32 }
%struct.hashmap = type { ptr, ptr, ptr, i32, i32, i32, i32, i8 }
%struct.object_id = type { [32 x i8], i32 }

@should_validate_cache_entries.validate_index_cache_entries = internal global i32 -1, align 4
@.str.45 = private unnamed_addr constant [38 x i8] c"GIT_TEST_VALIDATE_INDEX_CACHE_ENTRIES\00", align 1

; Function Attrs: nounwind uwtable
define dso_local i32 @should_validate_cache_entries() #0 {
  %1 = load i32, ptr @should_validate_cache_entries.validate_index_cache_entries, align 4, !tbaa !9
  %2 = icmp slt i32 %1, 0
  br i1 %2, label %3, label %9

3:                                                ; preds = %0
  %4 = call ptr @getenv(ptr noundef @.str.45) #12
  %5 = icmp ne ptr %4, null
  br i1 %5, label %6, label %7

6:                                                ; preds = %3
  store i32 1, ptr @should_validate_cache_entries.validate_index_cache_entries, align 4, !tbaa !9
  br label %8

7:                                                ; preds = %3
  store i32 0, ptr @should_validate_cache_entries.validate_index_cache_entries, align 4, !tbaa !9
  br label %8

8:                                                ; preds = %7, %6
  br label %9

9:                                                ; preds = %8, %0
  %10 = load i32, ptr @should_validate_cache_entries.validate_index_cache_entries, align 4, !tbaa !9
  ret i32 %10
}

; Function Attrs: nounwind uwtable
define dso_local void @release_index(ptr noundef %0) #0 {
  %2 = alloca ptr, align 8
  store ptr %0, ptr %2, align 8, !tbaa !4
  %3 = load ptr, ptr %2, align 8, !tbaa !4
  call void @validate_cache_entries(ptr noundef %3)
  %4 = load ptr, ptr %2, align 8, !tbaa !4
  call void @resolve_undo_clear_index(ptr noundef %4)
  %5 = load ptr, ptr %2, align 8, !tbaa !4
  call void @free_name_hash(ptr noundef %5)
  %6 = load ptr, ptr %2, align 8, !tbaa !4
  %7 = getelementptr inbounds nuw %struct.index_state, ptr %6, i32 0, i32 6
  call void @cache_tree_free(ptr noundef %7)
  %8 = load ptr, ptr %2, align 8, !tbaa !4
  %9 = getelementptr inbounds nuw %struct.index_state, ptr %8, i32 0, i32 15
  %10 = load ptr, ptr %9, align 8, !tbaa !95
  call void @free(ptr noundef %10) #12
  %11 = load ptr, ptr %2, align 8, !tbaa !4
  %12 = getelementptr inbounds nuw %struct.index_state, ptr %11, i32 0, i32 0
  %13 = load ptr, ptr %12, align 8, !tbaa !13
  call void @free(ptr noundef %13) #12
  %14 = load ptr, ptr %2, align 8, !tbaa !4
  call void @discard_split_index(ptr noundef %14)
  %15 = load ptr, ptr %2, align 8, !tbaa !4
  %16 = getelementptr inbounds nuw %struct.index_state, ptr %15, i32 0, i32 14
  %17 = load ptr, ptr %16, align 8, !tbaa !158
  call void @free_untracked_cache(ptr noundef %17)
  %18 = load ptr, ptr %2, align 8, !tbaa !4
  %19 = getelementptr inbounds nuw %struct.index_state, ptr %18, i32 0, i32 20
  %20 = load ptr, ptr %19, align 8, !tbaa !159
  %21 = icmp ne ptr %20, null
  br i1 %21, label %22, label %33

22:                                               ; preds = %1
  %23 = load ptr, ptr %2, align 8, !tbaa !4
  %24 = getelementptr inbounds nuw %struct.index_state, ptr %23, i32 0, i32 20
  %25 = load ptr, ptr %24, align 8, !tbaa !159
  call void @clear_pattern_list(ptr noundef %25)
  br label %26

26:                                               ; preds = %22
  %27 = load ptr, ptr %2, align 8, !tbaa !4
  %28 = getelementptr inbounds nuw %struct.index_state, ptr %27, i32 0, i32 20
  %29 = load ptr, ptr %28, align 8, !tbaa !159
  call void @free(ptr noundef %29) #12
  %30 = load ptr, ptr %2, align 8, !tbaa !4
  %31 = getelementptr inbounds nuw %struct.index_state, ptr %30, i32 0, i32 20
  store ptr null, ptr %31, align 8, !tbaa !159
  br label %32

32:                                               ; preds = %26
  br label %33

33:                                               ; preds = %32, %1
  %34 = load ptr, ptr %2, align 8, !tbaa !4
  %35 = getelementptr inbounds nuw %struct.index_state, ptr %34, i32 0, i32 17
  %36 = load ptr, ptr %35, align 8, !tbaa !141
  %37 = icmp ne ptr %36, null
  br i1 %37, label %38, label %50

38:                                               ; preds = %33
  %39 = load ptr, ptr %2, align 8, !tbaa !4
  %40 = getelementptr inbounds nuw %struct.index_state, ptr %39, i32 0, i32 17
  %41 = load ptr, ptr %40, align 8, !tbaa !141
  %42 = call i32 @should_validate_cache_entries()
  call void @mem_pool_discard(ptr noundef %41, i32 noundef %42)
  br label %43

43:                                               ; preds = %38
  %44 = load ptr, ptr %2, align 8, !tbaa !4
  %45 = getelementptr inbounds nuw %struct.index_state, ptr %44, i32 0, i32 17
  %46 = load ptr, ptr %45, align 8, !tbaa !141
  call void @free(ptr noundef %46) #12
  %47 = load ptr, ptr %2, align 8, !tbaa !4
  %48 = getelementptr inbounds nuw %struct.index_state, ptr %47, i32 0, i32 17
  store ptr null, ptr %48, align 8, !tbaa !141
  br label %49

49:                                               ; preds = %43
  br label %50

50:                                               ; preds = %49, %33
  ret void
}