; Function Attrs: nounwind uwtable
define dso_local void @release_index(ptr noundef %0) local_unnamed_addr #0 {
  tail call void @validate_cache_entries(ptr noundef %0)
  tail call void @resolve_undo_clear_index(ptr noundef %0) #30
  tail call void @free_name_hash(ptr noundef %0) #30
  %2 = getelementptr inbounds nuw i8, ptr %0, i64 32
  tail call void @cache_tree_free(ptr noundef nonnull %2) #30
  %3 = getelementptr inbounds nuw i8, ptr %0, i64 208
  %4 = load ptr, ptr %3, align 8, !tbaa !86
  tail call void @free(ptr noundef %4) #30
  %5 = load ptr, ptr %0, align 8, !tbaa !4
  tail call void @free(ptr noundef %5) #30
  tail call void @discard_split_index(ptr noundef nonnull %0) #30
  %6 = getelementptr inbounds nuw i8, ptr %0, i64 200
  %7 = load ptr, ptr %6, align 8, !tbaa !135
  tail call void @free_untracked_cache(ptr noundef %7) #30
  %8 = getelementptr inbounds nuw i8, ptr %0, i64 248
  %9 = load ptr, ptr %8, align 8, !tbaa !141
  %.not = icmp eq ptr %9, null
  br i1 %.not, label %12, label %10

10:                                               ; preds = %1
  tail call void @clear_pattern_list(ptr noundef nonnull %9) #30
  %11 = load ptr, ptr %8, align 8, !tbaa !141
  tail call void @free(ptr noundef %11) #30
  store ptr null, ptr %8, align 8, !tbaa !141
  br label %12

12:                                               ; preds = %10, %1
  %13 = getelementptr inbounds nuw i8, ptr %0, i64 224
  %14 = load ptr, ptr %13, align 8, !tbaa !116
  %.not17 = icmp eq ptr %14, null
  br i1 %.not17, label %21, label %15

15:                                               ; preds = %12
  %16 = load i32, ptr @should_validate_cache_entries.validate_index_cache_entries, align 4, !tbaa !32
  %17 = icmp slt i32 %16, 0
  br i1 %17, label %.sink.split.i, label %should_validate_cache_entries.exit

.sink.split.i:                                    ; preds = %15
  %18 = tail call ptr @getenv(ptr noundef nonnull @.str.45) #30
  %.not.i = icmp ne ptr %18, null
  %..i = zext i1 %.not.i to i32
  store i32 %..i, ptr @should_validate_cache_entries.validate_index_cache_entries, align 4, !tbaa !32
  br label %should_validate_cache_entries.exit

should_validate_cache_entries.exit:               ; preds = %15, %.sink.split.i
  %19 = phi i32 [ %16, %15 ], [ %..i, %.sink.split.i ]
  tail call void @mem_pool_discard(ptr noundef nonnull %14, i32 noundef %19) #30
  %20 = load ptr, ptr %13, align 8, !tbaa !116
  tail call void @free(ptr noundef %20) #30
  store ptr null, ptr %13, align 8, !tbaa !116
  br label %21

21:                                               ; preds = %should_validate_cache_entries.exit, %12
  ret void
}